target datalayout = "e-m:e-p270:32:32-p271:32:32-p272:64:64-i64:64-i128:128-f80:128-n8:16:32:64-S128"
target triple = "x86_64-pc-linux-gnu"

%"struct.folly::operator_new_fn" = type { i8 }
%"struct.folly::detail::op_new_builtin_fn_" = type { i8 }
%"class.folly::exception_shared_string" = type { i64 }
%"struct.folly::exception_shared_string::state" = type { %"struct.std::atomic.1", i64 }
%"struct.std::atomic.1" = type { %"struct.std::__atomic_base.2" }
%"struct.std::__atomic_base.2" = type { i64 }

@_ZN5folly12operator_newE = linkonce_odr constant %"struct.folly::operator_new_fn" undef, comdat, align 1
@_ZN5folly6detail7op_new_ILb1ELb1EEE = linkonce_odr constant %"struct.folly::detail::op_new_builtin_fn_" zeroinitializer, comdat, align 1

; Function Attrs: mustprogress nounwind uwtable
define linkonce_odr void @_ZNSt13__atomic_baseImEC2Em(ptr noundef nonnull align 8 dereferenceable(8) %0, i64 noundef %1) unnamed_addr #0 comdat align 2 {
  %3 = alloca ptr, align 8
  %4 = alloca i64, align 8
  store ptr %0, ptr %3, align 8, !tbaa !106
  store i64 %1, ptr %4, align 8, !tbaa !46
  %5 = load ptr, ptr %3, align 8
  %6 = getelementptr inbounds nuw %"struct.std::__atomic_base.2", ptr %5, i32 0, i32 0
  %7 = load i64, ptr %4, align 8, !tbaa !46
  store i64 %7, ptr %6, align 8, !tbaa !108
  ret void
}

; Function Attrs: mustprogress nounwind uwtable
define linkonce_odr void @_ZNSt6atomicImEC2Em(ptr noundef nonnull align 8 dereferenceable(8) %0, i64 noundef %1) unnamed_addr #0 comdat align 2 {
  %3 = alloca ptr, align 8
  %4 = alloca i64, align 8
  store ptr %0, ptr %3, align 8, !tbaa !104
  store i64 %1, ptr %4, align 8, !tbaa !46
  %5 = load ptr, ptr %3, align 8
  %6 = load i64, ptr %4, align 8, !tbaa !46
  call void @_ZNSt13__atomic_baseImEC2Em(ptr noundef nonnull align 8 dereferenceable(8) %5, i64 noundef %6) #20
  ret void
}

; Function Attrs: alwaysinline mustprogress uwtable
define linkonce_odr hidden noundef ptr @_ZNK5folly6detail18op_new_builtin_fn_clIJRKmRKSt11align_val_tEEEDTclL_Z22__builtin_operator_newEspscT_fp_EEDpOS8_(ptr noundef nonnull align 1 dereferenceable(1) %0, ptr noundef nonnull align 8 dereferenceable(8) %1, ptr noundef nonnull align 8 dereferenceable(8) %2) #11 comdat align 2 {
  %4 = alloca ptr, align 8
  %5 = alloca ptr, align 8
  %6 = alloca ptr, align 8
  store ptr %0, ptr %4, align 8, !tbaa !100
  store ptr %1, ptr %5, align 8, !tbaa !102
  store ptr %2, ptr %6, align 8, !tbaa !30
  %7 = load ptr, ptr %5, align 8, !tbaa !102
  %8 = load i64, ptr %7, align 8, !tbaa !46
  %9 = load ptr, ptr %6, align 8, !tbaa !30
  %10 = load i64, ptr %9, align 8, !tbaa !88
  %11 = call noalias noundef nonnull ptr @_ZnwmSt11align_val_t(i64 noundef %8, i64 noundef %10) #23
  call void @llvm.assume(i1 true) [ "align"(ptr %11, i64 %10) ]
  ret ptr %11
}

; Function Attrs: mustprogress nounwind uwtable
define linkonce_odr void @_ZN5folly23exception_shared_string5stateC2EPKcm(ptr noundef nonnull align 8 dereferenceable(16) %0, ptr noundef %1, i64 noundef %2) unnamed_addr #0 comdat align 2 {
  %4 = alloca ptr, align 8
  %5 = alloca ptr, align 8
  %6 = alloca i64, align 8
  store ptr %0, ptr %4, align 8, !tbaa !92
  store ptr %1, ptr %5, align 8, !tbaa !98
  store i64 %2, ptr %6, align 8, !tbaa !46
  %7 = load ptr, ptr %4, align 8
  %8 = getelementptr inbounds nuw %"struct.folly::exception_shared_string::state", ptr %7, i32 0, i32 0
  call void @_ZNSt6atomicImEC2Em(ptr noundef nonnull align 8 dereferenceable(8) %8, i64 noundef 0) #20
  %9 = getelementptr inbounds nuw %"struct.folly::exception_shared_string::state", ptr %7, i32 0, i32 1
  %10 = load i64, ptr %6, align 8, !tbaa !46
  store i64 %10, ptr %9, align 8, !tbaa !94
  %11 = getelementptr inbounds nuw %"struct.folly::exception_shared_string::state", ptr %7, i64 1
  %12 = load ptr, ptr %5, align 8, !tbaa !98
  %13 = load i64, ptr %6, align 8, !tbaa !46
  %14 = add i64 %13, 1
  call void @llvm.memcpy.p0.p0.i64(ptr align 1 %11, ptr align 1 %12, i64 %14, i1 false)
  ret void
}

; Function Attrs: alwaysinline mustprogress uwtable
define linkonce_odr hidden noundef ptr @_ZNK5folly15operator_new_fnclEmSt11align_val_t(ptr noundef nonnull align 1 dereferenceable(1) %0, i64 noundef %1, i64 noundef %2) #11 comdat align 2 {
  %4 = alloca ptr, align 8
  %5 = alloca i64, align 8
  %6 = alloca i64, align 8
  store ptr %0, ptr %4, align 8, !tbaa !90
  store i64 %1, ptr %5, align 8, !tbaa !46
  store i64 %2, ptr %6, align 8, !tbaa !88
  %7 = call noundef ptr @_ZNK5folly6detail18op_new_builtin_fn_clIJRKmRKSt11align_val_tEEEDTclL_Z22__builtin_operator_newEspscT_fp_EEDpOS8_(ptr noundef nonnull align 1 dereferenceable(1) @_ZN5folly6detail7op_new_ILb1ELb1EEE, ptr noundef nonnull align 8 dereferenceable(8) %5, ptr noundef nonnull align 8 dereferenceable(8) %6)
  ret ptr %7
}

; Function Attrs: mustprogress nounwind uwtable
define linkonce_odr noundef i64 @_ZN5folly23exception_shared_string5state11object_sizeEm(i64 noundef %0) #0 comdat align 2 {
  %2 = alloca i64, align 8
  store i64 %0, ptr %2, align 8, !tbaa !46
  %3 = load i64, ptr %2, align 8, !tbaa !46
  %4 = add i64 16, %3
  %5 = add i64 %4, 1
  ret i64 %5
}

; Function Attrs: mustprogress uwtable
define linkonce_odr noundef ptr @_ZN5folly23exception_shared_string5state4makeEPKcm(ptr noundef %0, i64 noundef %1) #15 comdat align 2 {
  %3 = alloca ptr, align 8
  %4 = alloca i64, align 8
  %5 = alloca i64, align 8
  %6 = alloca ptr, align 8
  store ptr %0, ptr %3, align 8, !tbaa !98
  store i64 %1, ptr %4, align 8, !tbaa !46
  call void @llvm.lifetime.start.p0(i64 8, ptr %5) #20
  store i64 8, ptr %5, align 8, !tbaa !88
  call void @llvm.lifetime.start.p0(i64 8, ptr %6) #20
  %7 = load i64, ptr %4, align 8, !tbaa !46
  %8 = call noundef i64 @_ZN5folly23exception_shared_string5state11object_sizeEm(i64 noundef %7) #20
  %9 = call noundef ptr @_ZNK5folly15operator_new_fnclEmSt11align_val_t(ptr noundef nonnull align 1 dereferenceable(1) @_ZN5folly12operator_newE, i64 noundef %8, i64 noundef 8)
  store ptr %9, ptr %6, align 8, !tbaa !30
  %10 = load ptr, ptr %6, align 8, !tbaa !30
  %11 = load ptr, ptr %3, align 8, !tbaa !98
  %12 = load i64, ptr %4, align 8, !tbaa !46
  call void @_ZN5folly23exception_shared_string5stateC2EPKcm(ptr noundef nonnull align 8 dereferenceable(16) %10, ptr noundef %11, i64 noundef %12) #20
  call void @llvm.lifetime.end.p0(i64 8, ptr %6) #20
  call void @llvm.lifetime.end.p0(i64 8, ptr %5) #20
  ret ptr %10
}

; Function Attrs: mustprogress uwtable
define void @_ZN5folly23exception_shared_stringC2EPKcm(ptr noundef nonnull align 8 dereferenceable(8) %0, ptr noundef %1, i64 noundef %2) unnamed_addr #15 align 2 {
  %4 = alloca ptr, align 8
  %5 = alloca ptr, align 8
  %6 = alloca i64, align 8
  store ptr %0, ptr %4, align 8, !tbaa !84
  store ptr %1, ptr %5, align 8, !tbaa !98
  store i64 %2, ptr %6, align 8, !tbaa !46
  %7 = load ptr, ptr %4, align 8
  %8 = getelementptr inbounds nuw %"class.folly::exception_shared_string", ptr %7, i32 0, i32 0
  %9 = load ptr, ptr %5, align 8, !tbaa !98
  %10 = load i64, ptr %6, align 8, !tbaa !46
  %11 = call noundef ptr @_ZN5folly23exception_shared_string5state4makeEPKcm(ptr noundef %9, i64 noundef %10)
  %12 = ptrtoint ptr %11 to i64
  store i64 %12, ptr %8, align 8, !tbaa !86
  ret void
}

; Function Attrs: mustprogress uwtable
define void @_ZN5folly23exception_shared_stringC2EPKc(ptr noundef nonnull align 8 dereferenceable(8) %0, ptr noundef %1) unnamed_addr #15 align 2 {
  %3 = alloca ptr, align 8
  %4 = alloca ptr, align 8
  store ptr %0, ptr %3, align 8, !tbaa !84
  store ptr %1, ptr %4, align 8, !tbaa !98
  %5 = load ptr, ptr %3, align 8
  %6 = load ptr, ptr %4, align 8, !tbaa !98
  %7 = load ptr, ptr %4, align 8, !tbaa !98
  %8 = call i64 @strlen(ptr noundef %7) #24
  call void @_ZN5folly23exception_shared_stringC2EPKcm(ptr noundef nonnull align 8 dereferenceable(8) %5, ptr noundef %6, i64 noundef %8)
  ret void
}