; Function Attrs: mustprogress uwtable
define void @_ZN5folly23exception_shared_stringC2EPKc(ptr noundef nonnull writeonly align 8 captures(none) dereferenceable(8) initializes((0, 8)) %0, ptr noundef readonly captures(none) %1) unnamed_addr #13 align 2 {
  %3 = tail call i64 @strlen(ptr noundef nonnull dereferenceable(1) %1) #25
  %4 = add i64 %3, 17
  %5 = tail call noalias noundef nonnull align 8 ptr @_ZnwmSt11align_val_t(i64 noundef %4, i64 noundef 8) #24
  call void @llvm.assume(i1 true) [ "align"(ptr %5, i64 8) ]
  store i64 0, ptr %5, align 8, !tbaa !43
  %6 = getelementptr inbounds nuw i8, ptr %5, i64 8
  store i64 %3, ptr %6, align 8, !tbaa !45
  %7 = getelementptr inbounds nuw i8, ptr %5, i64 16
  %8 = add i64 %3, 1
  tail call void @llvm.memcpy.p0.p0.i64(ptr nonnull align 8 %7, ptr nonnull readonly align 1 %1, i64 %8, i1 false)
  %9 = ptrtoint ptr %5 to i64
  store i64 %9, ptr %0, align 8, !tbaa !49
  ret void
}